; Function Attrs: nounwind uwtable
define void @lv_arc_align_obj_to_angle(ptr noundef %0, ptr noundef %1, i32 noundef %2) local_unnamed_addr #0 {
  %4 = alloca %struct.lv_point_t, align 4
  %5 = alloca i32, align 4
  %.not = icmp eq ptr %0, null
  br i1 %.not, label %.preheader, label %6

.preheader:                                       ; preds = %3, %.preheader
  br label %.preheader

6:                                                ; preds = %3
  %.not15 = icmp eq ptr %1, null
  br i1 %.not15, label %.preheader16, label %7

.preheader16:                                     ; preds = %6, %.preheader16
  br label %.preheader16

7:                                                ; preds = %6
  tail call void @lv_obj_update_layout(ptr noundef nonnull %0) #7
  call void @llvm.lifetime.start.p0(i64 8, ptr nonnull %4) #7
  call void @llvm.lifetime.start.p0(i64 4, ptr nonnull %5) #7
  call fastcc void @get_center(ptr noundef nonnull %0, ptr noundef %4, ptr noundef %5)
  %8 = tail call ptr @lv_obj_get_style_prop(ptr noundef nonnull %0, i32 noundef 131072, i8 noundef zeroext 80) #7
  %9 = load i32, ptr %5, align 4, !tbaa !30
  %10 = getelementptr inbounds nuw i8, ptr %0, i64 64
  %11 = load i32, ptr %10, align 8, !tbaa !3
  %12 = sitofp i32 %11 to float
  %13 = getelementptr inbounds nuw i8, ptr %0, i64 96
  %14 = load i8, ptr %13, align 8
  %15 = lshr i8 %14, 1
  %16 = and i8 %15, 3
  switch i8 %16, label %default.unreachable [
    i8 0, label %17
    i8 2, label %21
    i8 1, label %25
    i8 3, label %get_angle.exit
  ]

17:                                               ; preds = %7
  %18 = getelementptr inbounds nuw i8, ptr %0, i64 72
  %19 = load float, ptr %18, align 8, !tbaa !20
  %20 = fadd float %19, %12
  br label %get_angle.exit

21:                                               ; preds = %7
  %22 = getelementptr inbounds nuw i8, ptr %0, i64 68
  %23 = load float, ptr %22, align 4, !tbaa !19
  %24 = fadd float %23, %12
  br label %get_angle.exit

25:                                               ; preds = %7
  %26 = getelementptr inbounds nuw i8, ptr %0, i64 80
  %27 = load float, ptr %26, align 8, !tbaa !18
  %28 = getelementptr inbounds nuw i8, ptr %0, i64 76
  %29 = load float, ptr %28, align 4, !tbaa !17
  %30 = fcmp olt float %27, %29
  %31 = fadd float %27, 3.600000e+02
  %.031.i = select i1 %30, float %31, float %27
  %32 = getelementptr inbounds nuw i8, ptr %0, i64 72
  %33 = load float, ptr %32, align 8, !tbaa !20
  %34 = getelementptr inbounds nuw i8, ptr %0, i64 68
  %35 = load float, ptr %34, align 4, !tbaa !19
  %36 = fadd float %29, %.031.i
  %37 = fptosi float %36 to i32
  %38 = sdiv i32 %37, 2
  %39 = sitofp i32 %38 to float
  %40 = fcmp olt float %35, %39
  br i1 %40, label %41, label %43

41:                                               ; preds = %25
  %42 = fadd float %35, %12
  br label %get_angle.exit

43:                                               ; preds = %25
  %44 = fcmp olt float %33, %35
  %45 = fadd float %33, 3.600000e+02
  %.030.i = select i1 %44, float %45, float %33
  %46 = fcmp ogt float %.030.i, %39
  br i1 %46, label %47, label %49

47:                                               ; preds = %43
  %48 = fadd float %33, %12
  br label %get_angle.exit

49:                                               ; preds = %43
  %50 = fadd float %12, %39
  br label %get_angle.exit

default.unreachable:                              ; preds = %7
  unreachable

get_angle.exit:                                   ; preds = %7, %17, %21, %41, %47, %49
  %.0.i = phi float [ %20, %17 ], [ %24, %21 ], [ %12, %7 ], [ %42, %41 ], [ %48, %47 ], [ %50, %49 ]
  %51 = add i32 %9, %2
  %52 = ptrtoint ptr %8 to i64
  %.sroa.0.0.extract.trunc.i = trunc i64 %52 to i32
  %.neg = sdiv i32 %.sroa.0.0.extract.trunc.i, -2
  %53 = add i32 %51, %.neg
  %54 = fptosi float %.0.i to i32
  %55 = trunc i32 %54 to i16
  %56 = add i16 %55, 90
  %57 = tail call i32 @lv_trigo_sin(i16 noundef signext %56) #7
  %58 = mul nsw i32 %57, %53
  %59 = ashr i32 %58, 15
  %60 = tail call i32 @lv_trigo_sin(i16 noundef signext %55) #7
  %61 = mul nsw i32 %60, %53
  %62 = ashr i32 %61, 15
  tail call void @lv_obj_align_to(ptr noundef nonnull %1, ptr noundef nonnull %0, i32 noundef 9, i32 noundef %59, i32 noundef %62) #7
  call void @llvm.lifetime.end.p0(i64 4, ptr nonnull %5) #7
  call void @llvm.lifetime.end.p0(i64 8, ptr nonnull %4) #7
  ret void
}